target datalayout = "e-m:e-p270:32:32-p271:32:32-p272:64:64-i64:64-i128:128-f80:128-n8:16:32:64-S128"
target triple = "x86_64-pc-linux-gnu"

%"struct.cv::UMatData" = type { ptr, ptr, i32, i32, ptr, ptr, i64, i32, ptr, ptr, i32, i32, ptr, %"class.std::shared_ptr" }
%"class.std::shared_ptr" = type { %"class.std::__shared_ptr" }
%"class.std::__shared_ptr" = type { ptr, %"class.std::__shared_count" }
%"class.std::__shared_count" = type { ptr }
%"class.cv::UMat" = type { i32, i32, i32, i32, ptr, i32, ptr, i64, %"struct.cv::MatSize", %"struct.cv::MatStep" }
%"struct.cv::MatSize" = type { ptr }
%"struct.cv::MatStep" = type { ptr, [2 x i64] }

; Function Attrs: mustprogress uwtable
define void @_ZN2cv4UMat10deallocateEv(ptr noundef nonnull align 8 dereferenceable(80) %0) #3 align 2 {
  %2 = alloca ptr, align 8
  %3 = alloca ptr, align 8
  store ptr %0, ptr %2, align 8, !tbaa !65
  %4 = load ptr, ptr %2, align 8
  call void @llvm.lifetime.start.p0(i64 8, ptr %3) #16
  %5 = getelementptr inbounds nuw %"class.cv::UMat", ptr %4, i32 0, i32 6
  %6 = load ptr, ptr %5, align 8, !tbaa !80
  store ptr %6, ptr %3, align 8, !tbaa !3
  %7 = getelementptr inbounds nuw %"class.cv::UMat", ptr %4, i32 0, i32 6
  store ptr null, ptr %7, align 8, !tbaa !80
  %8 = load ptr, ptr %3, align 8, !tbaa !3
  %9 = getelementptr inbounds nuw %"struct.cv::UMatData", ptr %8, i32 0, i32 1
  %10 = load ptr, ptr %9, align 8, !tbaa !10
  %11 = load ptr, ptr %3, align 8, !tbaa !3
  %12 = load ptr, ptr %10, align 8, !tbaa !40
  %13 = getelementptr inbounds ptr, ptr %12, i64 4
  %14 = load ptr, ptr %13, align 8
  call void %14(ptr noundef nonnull align 8 dereferenceable(8) %10, ptr noundef %11)
  call void @llvm.lifetime.end.p0(i64 8, ptr %3) #16
  ret void
}

; Function Attrs: inlinehint mustprogress nounwind uwtable
define linkonce_odr hidden noundef nonnull align 8 dereferenceable(8) ptr @_ZN2cv7MatStepixEi(ptr noundef nonnull align 8 dereferenceable(24) %0, i32 noundef %1) #5 comdat align 2 {
  %3 = alloca ptr, align 8
  %4 = alloca i32, align 4
  store ptr %0, ptr %3, align 8, !tbaa !86
  store i32 %1, ptr %4, align 4, !tbaa !37
  %5 = load ptr, ptr %3, align 8
  %6 = getelementptr inbounds nuw %"struct.cv::MatStep", ptr %5, i32 0, i32 0
  %7 = load ptr, ptr %6, align 8, !tbaa !88
  %8 = load i32, ptr %4, align 4, !tbaa !37
  %9 = sext i32 %8 to i64
  %10 = getelementptr inbounds i64, ptr %7, i64 %9
  ret ptr %10
}

; Function Attrs: mustprogress uwtable
define void @_ZN2cv4UMat7releaseEv(ptr noundef nonnull align 8 dereferenceable(80) %0) #3 align 2 {
  %2 = alloca ptr, align 8
  %3 = alloca i32, align 4
  %4 = alloca i32, align 4
  %5 = alloca i32, align 4
  store ptr %0, ptr %2, align 8, !tbaa !65
  %6 = load ptr, ptr %2, align 8
  %7 = getelementptr inbounds nuw %"class.cv::UMat", ptr %6, i32 0, i32 6
  %8 = load ptr, ptr %7, align 8, !tbaa !80
  %9 = icmp ne ptr %8, null
  br i1 %9, label %10, label %19

10:                                               ; preds = %1
  %11 = getelementptr inbounds nuw %"class.cv::UMat", ptr %6, i32 0, i32 6
  %12 = load ptr, ptr %11, align 8, !tbaa !80
  %13 = getelementptr inbounds nuw %"struct.cv::UMatData", ptr %12, i32 0, i32 2
  store i32 -1, ptr %3, align 4, !tbaa !37
  %14 = load i32, ptr %3, align 4
  %15 = atomicrmw add ptr %13, i32 %14 acq_rel, align 8
  store i32 %15, ptr %4, align 4
  %16 = load i32, ptr %4, align 4, !tbaa !37
  %17 = icmp eq i32 %16, 1
  br i1 %17, label %18, label %19

18:                                               ; preds = %10
  call void @_ZN2cv4UMat10deallocateEv(ptr noundef nonnull align 8 dereferenceable(80) %6)
  br label %19

19:                                               ; preds = %18, %10, %1
  call void @llvm.lifetime.start.p0(i64 4, ptr %5) #16
  store i32 0, ptr %5, align 4, !tbaa !37
  br label %20

20:                                               ; preds = %33, %19
  %21 = load i32, ptr %5, align 4, !tbaa !37
  %22 = getelementptr inbounds nuw %"class.cv::UMat", ptr %6, i32 0, i32 1
  %23 = load i32, ptr %22, align 4, !tbaa !75
  %24 = icmp slt i32 %21, %23
  br i1 %24, label %26, label %25

25:                                               ; preds = %20
  call void @llvm.lifetime.end.p0(i64 4, ptr %5) #16
  br label %36

26:                                               ; preds = %20
  %27 = getelementptr inbounds nuw %"class.cv::UMat", ptr %6, i32 0, i32 8
  %28 = getelementptr inbounds nuw %"struct.cv::MatSize", ptr %27, i32 0, i32 0
  %29 = load ptr, ptr %28, align 8, !tbaa !96
  %30 = load i32, ptr %5, align 4, !tbaa !37
  %31 = sext i32 %30 to i64
  %32 = getelementptr inbounds i32, ptr %29, i64 %31
  store i32 0, ptr %32, align 4, !tbaa !37
  br label %33

33:                                               ; preds = %26
  %34 = load i32, ptr %5, align 4, !tbaa !37
  %35 = add nsw i32 %34, 1
  store i32 %35, ptr %5, align 4, !tbaa !37
  br label %20, !llvm.loop !100

36:                                               ; preds = %25
  %37 = getelementptr inbounds nuw %"class.cv::UMat", ptr %6, i32 0, i32 6
  store ptr null, ptr %37, align 8, !tbaa !80
  ret void
}

; Function Attrs: mustprogress uwtable
define noundef nonnull align 8 dereferenceable(80) ptr @_ZN2cv4UMataSEOS0_(ptr noundef nonnull align 8 dereferenceable(80) %0, ptr noundef nonnull align 8 dereferenceable(80) %1) #3 align 2 {
  %3 = alloca ptr, align 8
  %4 = alloca ptr, align 8
  %5 = alloca ptr, align 8
  store ptr %0, ptr %4, align 8, !tbaa !65
  store ptr %1, ptr %5, align 8, !tbaa !65
  %6 = load ptr, ptr %4, align 8
  %7 = load ptr, ptr %5, align 8, !tbaa !65
  %8 = icmp eq ptr %6, %7
  br i1 %8, label %9, label %10

9:                                                ; preds = %2
  store ptr %6, ptr %3, align 8
  br label %122

10:                                               ; preds = %2
  call void @_ZN2cv4UMat7releaseEv(ptr noundef nonnull align 8 dereferenceable(80) %6)
  %11 = load ptr, ptr %5, align 8, !tbaa !65
  %12 = getelementptr inbounds nuw %"class.cv::UMat", ptr %11, i32 0, i32 0
  %13 = load i32, ptr %12, align 8, !tbaa !69
  %14 = getelementptr inbounds nuw %"class.cv::UMat", ptr %6, i32 0, i32 0
  store i32 %13, ptr %14, align 8, !tbaa !69
  %15 = load ptr, ptr %5, align 8, !tbaa !65
  %16 = getelementptr inbounds nuw %"class.cv::UMat", ptr %15, i32 0, i32 1
  %17 = load i32, ptr %16, align 4, !tbaa !75
  %18 = getelementptr inbounds nuw %"class.cv::UMat", ptr %6, i32 0, i32 1
  store i32 %17, ptr %18, align 4, !tbaa !75
  %19 = load ptr, ptr %5, align 8, !tbaa !65
  %20 = getelementptr inbounds nuw %"class.cv::UMat", ptr %19, i32 0, i32 2
  %21 = load i32, ptr %20, align 8, !tbaa !76
  %22 = getelementptr inbounds nuw %"class.cv::UMat", ptr %6, i32 0, i32 2
  store i32 %21, ptr %22, align 8, !tbaa !76
  %23 = load ptr, ptr %5, align 8, !tbaa !65
  %24 = getelementptr inbounds nuw %"class.cv::UMat", ptr %23, i32 0, i32 3
  %25 = load i32, ptr %24, align 4, !tbaa !77
  %26 = getelementptr inbounds nuw %"class.cv::UMat", ptr %6, i32 0, i32 3
  store i32 %25, ptr %26, align 4, !tbaa !77
  %27 = load ptr, ptr %5, align 8, !tbaa !65
  %28 = getelementptr inbounds nuw %"class.cv::UMat", ptr %27, i32 0, i32 4
  %29 = load ptr, ptr %28, align 8, !tbaa !78
  %30 = getelementptr inbounds nuw %"class.cv::UMat", ptr %6, i32 0, i32 4
  store ptr %29, ptr %30, align 8, !tbaa !78
  %31 = load ptr, ptr %5, align 8, !tbaa !65
  %32 = getelementptr inbounds nuw %"class.cv::UMat", ptr %31, i32 0, i32 5
  %33 = load i32, ptr %32, align 8, !tbaa !79
  %34 = getelementptr inbounds nuw %"class.cv::UMat", ptr %6, i32 0, i32 5
  store i32 %33, ptr %34, align 8, !tbaa !79
  %35 = load ptr, ptr %5, align 8, !tbaa !65
  %36 = getelementptr inbounds nuw %"class.cv::UMat", ptr %35, i32 0, i32 6
  %37 = load ptr, ptr %36, align 8, !tbaa !80
  %38 = getelementptr inbounds nuw %"class.cv::UMat", ptr %6, i32 0, i32 6
  store ptr %37, ptr %38, align 8, !tbaa !80
  %39 = load ptr, ptr %5, align 8, !tbaa !65
  %40 = getelementptr inbounds nuw %"class.cv::UMat", ptr %39, i32 0, i32 7
  %41 = load i64, ptr %40, align 8, !tbaa !81
  %42 = getelementptr inbounds nuw %"class.cv::UMat", ptr %6, i32 0, i32 7
  store i64 %41, ptr %42, align 8, !tbaa !81
  %43 = getelementptr inbounds nuw %"class.cv::UMat", ptr %6, i32 0, i32 9
  %44 = getelementptr inbounds nuw %"struct.cv::MatStep", ptr %43, i32 0, i32 0
  %45 = load ptr, ptr %44, align 8, !tbaa !98
  %46 = getelementptr inbounds nuw %"class.cv::UMat", ptr %6, i32 0, i32 9
  %47 = getelementptr inbounds nuw %"struct.cv::MatStep", ptr %46, i32 0, i32 1
  %48 = getelementptr inbounds [2 x i64], ptr %47, i64 0, i64 0
  %49 = icmp ne ptr %45, %48
  br i1 %49, label %50, label %62

50:                                               ; preds = %10
  %51 = getelementptr inbounds nuw %"class.cv::UMat", ptr %6, i32 0, i32 9
  %52 = getelementptr inbounds nuw %"struct.cv::MatStep", ptr %51, i32 0, i32 0
  %53 = load ptr, ptr %52, align 8, !tbaa !98
  call void @_ZN2cv8fastFreeEPv(ptr noundef %53)
  %54 = getelementptr inbounds nuw %"class.cv::UMat", ptr %6, i32 0, i32 9
  %55 = getelementptr inbounds nuw %"struct.cv::MatStep", ptr %54, i32 0, i32 1
  %56 = getelementptr inbounds [2 x i64], ptr %55, i64 0, i64 0
  %57 = getelementptr inbounds nuw %"class.cv::UMat", ptr %6, i32 0, i32 9
  %58 = getelementptr inbounds nuw %"struct.cv::MatStep", ptr %57, i32 0, i32 0
  store ptr %56, ptr %58, align 8, !tbaa !98
  %59 = getelementptr inbounds nuw %"class.cv::UMat", ptr %6, i32 0, i32 2
  %60 = getelementptr inbounds nuw %"class.cv::UMat", ptr %6, i32 0, i32 8
  %61 = getelementptr inbounds nuw %"struct.cv::MatSize", ptr %60, i32 0, i32 0
  store ptr %59, ptr %61, align 8, !tbaa !96
  br label %62

62:                                               ; preds = %50, %10
  %63 = load ptr, ptr %5, align 8, !tbaa !65
  %64 = getelementptr inbounds nuw %"class.cv::UMat", ptr %63, i32 0, i32 1
  %65 = load i32, ptr %64, align 4, !tbaa !75
  %66 = icmp sle i32 %65, 2
  br i1 %66, label %67, label %80

67:                                               ; preds = %62
  %68 = load ptr, ptr %5, align 8, !tbaa !65
  %69 = getelementptr inbounds nuw %"class.cv::UMat", ptr %68, i32 0, i32 9
  %70 = call noundef nonnull align 8 dereferenceable(8) ptr @_ZN2cv7MatStepixEi(ptr noundef nonnull align 8 dereferenceable(24) %69, i32 noundef 0) #16
  %71 = load i64, ptr %70, align 8, !tbaa !50
  %72 = getelementptr inbounds nuw %"class.cv::UMat", ptr %6, i32 0, i32 9
  %73 = call noundef nonnull align 8 dereferenceable(8) ptr @_ZN2cv7MatStepixEi(ptr noundef nonnull align 8 dereferenceable(24) %72, i32 noundef 0) #16
  store i64 %71, ptr %73, align 8, !tbaa !50
  %74 = load ptr, ptr %5, align 8, !tbaa !65
  %75 = getelementptr inbounds nuw %"class.cv::UMat", ptr %74, i32 0, i32 9
  %76 = call noundef nonnull align 8 dereferenceable(8) ptr @_ZN2cv7MatStepixEi(ptr noundef nonnull align 8 dereferenceable(24) %75, i32 noundef 1) #16
  %77 = load i64, ptr %76, align 8, !tbaa !50
  %78 = getelementptr inbounds nuw %"class.cv::UMat", ptr %6, i32 0, i32 9
  %79 = call noundef nonnull align 8 dereferenceable(8) ptr @_ZN2cv7MatStepixEi(ptr noundef nonnull align 8 dereferenceable(24) %78, i32 noundef 1) #16
  store i64 %77, ptr %79, align 8, !tbaa !50
  br label %105

80:                                               ; preds = %62
  %81 = load ptr, ptr %5, align 8, !tbaa !65
  %82 = getelementptr inbounds nuw %"class.cv::UMat", ptr %81, i32 0, i32 9
  %83 = getelementptr inbounds nuw %"struct.cv::MatStep", ptr %82, i32 0, i32 0
  %84 = load ptr, ptr %83, align 8, !tbaa !98
  %85 = getelementptr inbounds nuw %"class.cv::UMat", ptr %6, i32 0, i32 9
  %86 = getelementptr inbounds nuw %"struct.cv::MatStep", ptr %85, i32 0, i32 0
  store ptr %84, ptr %86, align 8, !tbaa !98
  %87 = load ptr, ptr %5, align 8, !tbaa !65
  %88 = getelementptr inbounds nuw %"class.cv::UMat", ptr %87, i32 0, i32 8
  %89 = getelementptr inbounds nuw %"struct.cv::MatSize", ptr %88, i32 0, i32 0
  %90 = load ptr, ptr %89, align 8, !tbaa !96
  %91 = getelementptr inbounds nuw %"class.cv::UMat", ptr %6, i32 0, i32 8
  %92 = getelementptr inbounds nuw %"struct.cv::MatSize", ptr %91, i32 0, i32 0
  store ptr %90, ptr %92, align 8, !tbaa !96
  %93 = load ptr, ptr %5, align 8, !tbaa !65
  %94 = getelementptr inbounds nuw %"class.cv::UMat", ptr %93, i32 0, i32 9
  %95 = getelementptr inbounds nuw %"struct.cv::MatStep", ptr %94, i32 0, i32 1
  %96 = getelementptr inbounds [2 x i64], ptr %95, i64 0, i64 0
  %97 = load ptr, ptr %5, align 8, !tbaa !65
  %98 = getelementptr inbounds nuw %"class.cv::UMat", ptr %97, i32 0, i32 9
  %99 = getelementptr inbounds nuw %"struct.cv::MatStep", ptr %98, i32 0, i32 0
  store ptr %96, ptr %99, align 8, !tbaa !98
  %100 = load ptr, ptr %5, align 8, !tbaa !65
  %101 = getelementptr inbounds nuw %"class.cv::UMat", ptr %100, i32 0, i32 2
  %102 = load ptr, ptr %5, align 8, !tbaa !65
  %103 = getelementptr inbounds nuw %"class.cv::UMat", ptr %102, i32 0, i32 8
  %104 = getelementptr inbounds nuw %"struct.cv::MatSize", ptr %103, i32 0, i32 0
  store ptr %101, ptr %104, align 8, !tbaa !96
  br label %105

105:                                              ; preds = %80, %67
  %106 = load ptr, ptr %5, align 8, !tbaa !65
  %107 = getelementptr inbounds nuw %"class.cv::UMat", ptr %106, i32 0, i32 0
  store i32 1124007936, ptr %107, align 8, !tbaa !69
  %108 = load ptr, ptr %5, align 8, !tbaa !65
  %109 = getelementptr inbounds nuw %"class.cv::UMat", ptr %108, i32 0, i32 5
  store i32 0, ptr %109, align 8, !tbaa !79
  %110 = load ptr, ptr %5, align 8, !tbaa !65
  %111 = getelementptr inbounds nuw %"class.cv::UMat", ptr %110, i32 0, i32 3
  store i32 0, ptr %111, align 4, !tbaa !77
  %112 = load ptr, ptr %5, align 8, !tbaa !65
  %113 = getelementptr inbounds nuw %"class.cv::UMat", ptr %112, i32 0, i32 2
  store i32 0, ptr %113, align 8, !tbaa !76
  %114 = load ptr, ptr %5, align 8, !tbaa !65
  %115 = getelementptr inbounds nuw %"class.cv::UMat", ptr %114, i32 0, i32 1
  store i32 0, ptr %115, align 4, !tbaa !75
  %116 = load ptr, ptr %5, align 8, !tbaa !65
  %117 = getelementptr inbounds nuw %"class.cv::UMat", ptr %116, i32 0, i32 4
  store ptr null, ptr %117, align 8, !tbaa !78
  %118 = load ptr, ptr %5, align 8, !tbaa !65
  %119 = getelementptr inbounds nuw %"class.cv::UMat", ptr %118, i32 0, i32 6
  store ptr null, ptr %119, align 8, !tbaa !80
  %120 = load ptr, ptr %5, align 8, !tbaa !65
  %121 = getelementptr inbounds nuw %"class.cv::UMat", ptr %120, i32 0, i32 7
  store i64 0, ptr %121, align 8, !tbaa !81
  store ptr %6, ptr %3, align 8
  br label %122

122:                                              ; preds = %105, %9
  %123 = load ptr, ptr %3, align 8
  ret ptr %123
}