; Function Attrs: mustprogress uwtable
define noundef nonnull align 8 dereferenceable(80) ptr @_ZN2cv4UMataSEOS0_(ptr noundef nonnull returned align 8 dereferenceable(80) %0, ptr noundef nonnull align 8 dereferenceable(80) %1) local_unnamed_addr #4 align 2 {
  %3 = icmp eq ptr %0, %1
  br i1 %3, label %71, label %4

4:                                                ; preds = %2
  %5 = getelementptr inbounds nuw i8, ptr %0, i64 32
  %6 = load ptr, ptr %5, align 8, !tbaa !57
  %.not.i = icmp eq ptr %6, null
  br i1 %.not.i, label %18, label %7

7:                                                ; preds = %4
  %8 = getelementptr inbounds nuw i8, ptr %6, i64 16
  %9 = atomicrmw add ptr %8, i32 -1 acq_rel, align 8
  %10 = icmp eq i32 %9, 1
  br i1 %10, label %11, label %18

11:                                               ; preds = %7
  %12 = load ptr, ptr %5, align 8, !tbaa !57
  store ptr null, ptr %5, align 8, !tbaa !57
  %13 = getelementptr inbounds nuw i8, ptr %12, i64 8
  %14 = load ptr, ptr %13, align 8, !tbaa !3
  %15 = load ptr, ptr %14, align 8, !tbaa !21
  %16 = getelementptr inbounds nuw i8, ptr %15, i64 32
  %17 = load ptr, ptr %16, align 8
  tail call void %17(ptr noundef nonnull align 8 dereferenceable(8) %14, ptr noundef %12)
  br label %18

18:                                               ; preds = %11, %7, %4
  %19 = getelementptr inbounds nuw i8, ptr %0, i64 4
  %20 = load i32, ptr %19, align 4, !tbaa !58
  %21 = icmp sgt i32 %20, 0
  br i1 %21, label %.lr.ph.i, label %_ZN2cv4UMat7releaseEv.exit

.lr.ph.i:                                         ; preds = %18
  %22 = getelementptr inbounds nuw i8, ptr %0, i64 48
  %23 = load ptr, ptr %22, align 8, !tbaa !61
  br label %24

24:                                               ; preds = %24, %.lr.ph.i
  %indvars.iv.i = phi i64 [ 0, %.lr.ph.i ], [ %indvars.iv.next.i, %24 ]
  %25 = getelementptr inbounds nuw i32, ptr %23, i64 %indvars.iv.i
  store i32 0, ptr %25, align 4, !tbaa !28
  %indvars.iv.next.i = add nuw nsw i64 %indvars.iv.i, 1
  %26 = load i32, ptr %19, align 4, !tbaa !58
  %27 = sext i32 %26 to i64
  %28 = icmp slt i64 %indvars.iv.next.i, %27
  br i1 %28, label %24, label %_ZN2cv4UMat7releaseEv.exit, !llvm.loop !62

_ZN2cv4UMat7releaseEv.exit:                       ; preds = %24, %18
  store ptr null, ptr %5, align 8, !tbaa !57
  %29 = load i32, ptr %1, align 8, !tbaa !43
  store i32 %29, ptr %0, align 8, !tbaa !43
  %30 = getelementptr inbounds nuw i8, ptr %1, i64 4
  %31 = load i32, ptr %30, align 4, !tbaa !58
  store i32 %31, ptr %19, align 4, !tbaa !58
  %32 = getelementptr inbounds nuw i8, ptr %1, i64 8
  %33 = load i32, ptr %32, align 8, !tbaa !64
  %34 = getelementptr inbounds nuw i8, ptr %0, i64 8
  store i32 %33, ptr %34, align 8, !tbaa !64
  %35 = getelementptr inbounds nuw i8, ptr %1, i64 12
  %36 = load i32, ptr %35, align 4, !tbaa !65
  %37 = getelementptr inbounds nuw i8, ptr %0, i64 12
  store i32 %36, ptr %37, align 4, !tbaa !65
  %38 = getelementptr inbounds nuw i8, ptr %1, i64 16
  %39 = load ptr, ptr %38, align 8, !tbaa !68
  %40 = getelementptr inbounds nuw i8, ptr %0, i64 16
  store ptr %39, ptr %40, align 8, !tbaa !68
  %41 = getelementptr inbounds nuw i8, ptr %1, i64 24
  %42 = load i32, ptr %41, align 8, !tbaa !50
  %43 = getelementptr inbounds nuw i8, ptr %0, i64 24
  store i32 %42, ptr %43, align 8, !tbaa !50
  %44 = getelementptr inbounds nuw i8, ptr %1, i64 32
  %45 = load ptr, ptr %44, align 8, !tbaa !57
  store ptr %45, ptr %5, align 8, !tbaa !57
  %46 = getelementptr inbounds nuw i8, ptr %1, i64 40
  %47 = load i64, ptr %46, align 8, !tbaa !63
  %48 = getelementptr inbounds nuw i8, ptr %0, i64 40
  store i64 %47, ptr %48, align 8, !tbaa !63
  %49 = getelementptr inbounds nuw i8, ptr %0, i64 56
  %50 = load ptr, ptr %49, align 8, !tbaa !67
  %51 = getelementptr inbounds nuw i8, ptr %0, i64 64
  %.not = icmp eq ptr %50, %51
  br i1 %.not, label %54, label %52

52:                                               ; preds = %_ZN2cv4UMat7releaseEv.exit
  tail call void @_ZN2cv8fastFreeEPv(ptr noundef %50)
  store ptr %51, ptr %49, align 8, !tbaa !67
  %53 = getelementptr inbounds nuw i8, ptr %0, i64 48
  store ptr %34, ptr %53, align 8, !tbaa !61
  %.pre = load i32, ptr %30, align 4, !tbaa !58
  br label %54

54:                                               ; preds = %52, %_ZN2cv4UMat7releaseEv.exit
  %55 = phi ptr [ %51, %52 ], [ %50, %_ZN2cv4UMat7releaseEv.exit ]
  %56 = phi i32 [ %.pre, %52 ], [ %31, %_ZN2cv4UMat7releaseEv.exit ]
  %57 = icmp slt i32 %56, 3
  %58 = getelementptr inbounds nuw i8, ptr %1, i64 56
  %59 = load ptr, ptr %58, align 8, !tbaa !52
  br i1 %57, label %60, label %65

60:                                               ; preds = %54
  %61 = load i64, ptr %59, align 8, !tbaa !69
  store i64 %61, ptr %55, align 8, !tbaa !69
  %62 = getelementptr inbounds nuw i8, ptr %59, i64 8
  %63 = load i64, ptr %62, align 8, !tbaa !69
  %64 = getelementptr inbounds nuw i8, ptr %55, i64 8
  store i64 %63, ptr %64, align 8, !tbaa !69
  br label %70

65:                                               ; preds = %54
  store ptr %59, ptr %49, align 8, !tbaa !67
  %66 = getelementptr inbounds nuw i8, ptr %1, i64 48
  %67 = load ptr, ptr %66, align 8, !tbaa !61
  %68 = getelementptr inbounds nuw i8, ptr %0, i64 48
  store ptr %67, ptr %68, align 8, !tbaa !61
  %69 = getelementptr inbounds nuw i8, ptr %1, i64 64
  store ptr %69, ptr %58, align 8, !tbaa !67
  store ptr %32, ptr %66, align 8, !tbaa !61
  br label %70

70:                                               ; preds = %65, %60
  store i32 1124007936, ptr %1, align 8, !tbaa !43
  tail call void @llvm.memset.p0.i64(ptr noundef nonnull align 4 dereferenceable(24) %30, i8 0, i64 24, i1 false)
  tail call void @llvm.memset.p0.i64(ptr noundef nonnull align 8 dereferenceable(16) %44, i8 0, i64 16, i1 false)
  br label %71

71:                                               ; preds = %2, %70
  ret ptr %0
}